(dp1
S'Concept'
p2
ccopy_reg
_reconstructor
p3
(corngRegistry
WidgetCategory
p4
c__builtin__
dict
p5
(dp6
S'ConceptNet'
p7
(iorngRegistry
WidgetDescription
p8
(dp9
S'category'
p10
g2
sS'inputs'
p11
(lp12
g3
(corngSignalManager
InputSignal
p13
c__builtin__
object
p14
NtRp15
(dp16
S'name'
p17
S'TEST1'
p18
sS'default'
p19
I0
sS'explicit'
p20
I0
sS'single'
p21
I2
sS'handler'
p22
S'self.data'
p23
sS'type'
p24
S'WidgetChannelData'
p25
sbasS'inputClasses'
p26
c__builtin__
set
p27
((lp28
S'WidgetChannelData'
p29
atRp30
sg17
g7
sS'tags'
p31
S''
sS'outputClasses'
p32
g27
((lp33
g29
atRp34
sS'outputList'
p35
S"[('TEST2', 'WidgetChannelData')]"
p36
sS'description'
p37
S'ConceptNet'
p38
sS'inputList'
p39
S"[('TEST1', 'WidgetChannelData', 'self.data')]"
p40
sS'fileName'
p41
S'OWConceptNet'
p42
sS'priority'
p43
S'10'
p44
sS'contact'
p45
S''
sS'time'
p46
S'1334044576'
p47
sS'directory'
p48
S'/mnt/fat2/GitHub-Repo/ConceptBro/Widgets/Concept'
p49
sS'fullName'
p50
S'/mnt/fat2/GitHub-Repo/ConceptBro/Widgets/Concept/OWConceptNet.py'
p51
sS'tooltipText'
p52
S'<b><b>&nbsp;ConceptNet</b></b><hr><b>Description:</b><br>&nbsp;&nbsp;ConceptNet<hr><b>Inputs:</b><br> &nbsp;&nbsp; - TEST1 (WidgetChannelData)<hr><b>Outputs:</b><br> &nbsp; &nbsp; - TEST2 (WidgetChannelData)'
p53
sS'addOn'
p54
NsS'outputs'
p55
(lp56
g3
(corngSignalManager
OutputSignal
p57
g14
NtRp58
(dp59
g17
S'TEST2'
p60
sg19
I0
sS'dynamic'
p61
I0
sg20
I0
sg21
I2
sg24
S'WidgetChannelData'
p62
sbasS'icon'
p63
S'icons/Concept.png'
p64
sbstRp65
(dp66
g17
g2
sbsS'Cloud'
p67
g3
(g4
g5
(dp68
S'ConceptCloud'
p69
(iorngRegistry
WidgetDescription
p70
(dp71
g10
g67
sg11
(lp72
g3
(g13
g14
NtRp73
(dp74
g17
S'TEST1'
p75
sg19
I0
sg20
I0
sg21
I2
sg22
S'self.data'
p76
sg24
S'WidgetChannelData'
p77
sbasg26
g27
((lp78
g29
atRp79
sg17
g69
sg31
S''
sg32
g27
((lp80
g29
atRp81
sg35
S"[('TEST2', 'WidgetChannelData')]"
p82
sg37
S'Concept Cloud'
p83
sg39
S"[('TEST1', 'WidgetChannelData', 'self.data')]"
p84
sg41
S'OWConceptCloud'
p85
sg43
S'20'
p86
sg45
S''
sg46
S'1334047996'
p87
sg48
S'/mnt/fat2/GitHub-Repo/ConceptBro/Widgets/Cloud'
p88
sg50
S'/mnt/fat2/GitHub-Repo/ConceptBro/Widgets/Cloud/OWConceptCloud.py'
p89
sg52
S'<b><b>&nbsp;ConceptCloud</b></b><hr><b>Description:</b><br>&nbsp;&nbsp;Concept Cloud<hr><b>Inputs:</b><br> &nbsp;&nbsp; - TEST1 (WidgetChannelData)<hr><b>Outputs:</b><br> &nbsp; &nbsp; - TEST2 (WidgetChannelData)'
p90
sg54
Nsg55
(lp91
g3
(g57
g14
NtRp92
(dp93
g17
S'TEST2'
p94
sg19
I0
sg61
I0
sg20
I0
sg21
I2
sg24
S'WidgetChannelData'
p95
sbasg63
S'icons/Cloud.png'
p96
sbstRp97
(dp98
g17
g67
sbs.(I2
S'2.5'
p1
tp2
.