(dp1
S'synchronizeHelp'
p2
I1
sS'snapToGrid'
p3
I1
sS'printExceptionInStatusBar'
p4
I1
sS'dontAskBeforeClose'
p5
I0
sS'toolboxWidth'
p6
I200
sS'style'
p7
S'GTK+'
p8
sS'owShow'
p9
I0
sS'canvasWidth'
p10
I1440
sS'CanvasMainWindowGeometry'
p11
S'\x01\xd9\xd0\xcb\x00\x01\x00\x00\x00\x00\x00\x00\x00\x00\x00\x1f\x00\x00\x05\x9f\x00\x00\x03\x83\x00\x00\x00\x00\x00\x00\x00\x00\xff\xff\xff\xfe\xff\xff\xff\xfe\x00\x00\x00\x00\x02\x00'
p12
sS'useDefaultPalette'
p13
I0
sS'canvasHeight'
p14
I847
sS'enableCanvasDropShadows'
p15
I0
sS'ocInfo'
p16
I1
sS'WidgetTabs'
p17
(lp18
(S'Cloud'
p19
I1
tp20
a(S'Concept'
p21
I1
tp22
asS'ocError'
p23
I1
sS'showWidgetToolbar'
p24
I01
sS'focusOnCatchException'
p25
I1
sS'showToolbar'
p26
I01
sS'useContexts'
p27
I1
sS'widgetListType'
p28
I4
sS'lastAddonsRefresh'
p29
I0
sS'saveWidgetsPosition'
p30
I1
sS'owError'
p31
I1
sS'schemeIconSize'
p32
I1
sS'focusOnCatchOutput'
p33
I0
sS'saveSchemaDir'
p34
S'/mnt/fat2/GitHub-Repo/ConceptBro/Environ/CanvasEnv'
p35
sS'owInfo'
p36
I1
sS'outputVerbosity'
p37
I0
sS'printOutputInStatusBar'
p38
I1
sS'reportsDir'
p39
S'/mnt/fat2/GitHub-Repo/ConceptBro/Environ'
p40
sS'iconSize'
p41
S'40 x 40'
p42
sS'ocWarning'
p43
I1
sS'showSignalNames'
p44
I1
sS'ocShow'
p45
I1
sS'writeLogFile'
p46
I1
sS'owWarning'
p47
I1
sS'saveApplicationDir'
p48
g35
sS'toolbarIconSize'
p49
I2
s.